; Function Attrs: nounwind uwtable
define ptr @l_Std_Range_forIn_x27_loop___at_Lean_Elab_Deriving_Ord_mkMatch_mkAlts___spec__5___boxed(ptr noundef %0, ptr noundef %1, ptr noundef %2, ptr noundef %3, ptr noundef %4, ptr noundef %5, ptr noundef %6, ptr noundef readnone captures(none) %7, ptr noundef readnone captures(none) %8, ptr noundef %9, ptr noundef %10, ptr noundef %11, ptr noundef %12, ptr noundef %13, ptr noundef %14, ptr noundef %15) local_unnamed_addr #0 {
  %17 = tail call ptr @l_Std_Range_forIn_x27_loop___at_Lean_Elab_Deriving_Ord_mkMatch_mkAlts___spec__5(ptr noundef %0, ptr noundef %1, ptr noundef %2, ptr poison, ptr noundef %4, ptr noundef %5, ptr noundef %6, ptr poison, ptr poison, ptr poison, ptr poison, ptr noundef %11, ptr noundef %12, ptr noundef %13, ptr noundef %14, ptr noundef %15)
  %18 = ptrtoint ptr %10 to i64
  %19 = and i64 %18, 1
  %.not = icmp eq i64 %19, 0
  br i1 %.not, label %20, label %lean_dec.exit29

20:                                               ; preds = %16
  %21 = load i32, ptr %10, align 4, !tbaa !8
  %22 = icmp sgt i32 %21, 1
  br i1 %22, label %23, label %25, !prof !11

23:                                               ; preds = %20
  %24 = add nsw i32 %21, -1
  store i32 %24, ptr %10, align 4, !tbaa !8
  br label %lean_dec.exit29

25:                                               ; preds = %20
  %.not.i = icmp eq i32 %21, 0
  br i1 %.not.i, label %lean_dec.exit29, label %26

26:                                               ; preds = %25
  tail call void @lean_dec_ref_cold(ptr noundef nonnull %10) #5
  br label %lean_dec.exit29

lean_dec.exit29:                                  ; preds = %26, %25, %23, %16
  %27 = ptrtoint ptr %9 to i64
  %28 = and i64 %27, 1
  %.not42 = icmp eq i64 %28, 0
  br i1 %.not42, label %29, label %lean_dec.exit28

29:                                               ; preds = %lean_dec.exit29
  %30 = load i32, ptr %9, align 4, !tbaa !8
  %31 = icmp sgt i32 %30, 1
  br i1 %31, label %32, label %34, !prof !11

32:                                               ; preds = %29
  %33 = add nsw i32 %30, -1
  store i32 %33, ptr %9, align 4, !tbaa !8
  br label %lean_dec.exit28

34:                                               ; preds = %29
  %.not.i30 = icmp eq i32 %30, 0
  br i1 %.not.i30, label %lean_dec.exit28, label %35

35:                                               ; preds = %34
  tail call void @lean_dec_ref_cold(ptr noundef nonnull %9) #5
  br label %lean_dec.exit28

lean_dec.exit28:                                  ; preds = %35, %34, %32, %lean_dec.exit29
  %36 = ptrtoint ptr %4 to i64
  %37 = and i64 %36, 1
  %.not43 = icmp eq i64 %37, 0
  br i1 %.not43, label %38, label %lean_dec.exit27

38:                                               ; preds = %lean_dec.exit28
  %39 = load i32, ptr %4, align 4, !tbaa !8
  %40 = icmp sgt i32 %39, 1
  br i1 %40, label %41, label %43, !prof !11

41:                                               ; preds = %38
  %42 = add nsw i32 %39, -1
  store i32 %42, ptr %4, align 4, !tbaa !8
  br label %lean_dec.exit27

43:                                               ; preds = %38
  %.not.i32 = icmp eq i32 %39, 0
  br i1 %.not.i32, label %lean_dec.exit27, label %44

44:                                               ; preds = %43
  tail call void @lean_dec_ref_cold(ptr noundef nonnull %4) #5
  br label %lean_dec.exit27

lean_dec.exit27:                                  ; preds = %44, %43, %41, %lean_dec.exit28
  %45 = ptrtoint ptr %3 to i64
  %46 = and i64 %45, 1
  %.not44 = icmp eq i64 %46, 0
  br i1 %.not44, label %47, label %lean_dec.exit26

47:                                               ; preds = %lean_dec.exit27
  %48 = load i32, ptr %3, align 4, !tbaa !8
  %49 = icmp sgt i32 %48, 1
  br i1 %49, label %50, label %52, !prof !11

50:                                               ; preds = %47
  %51 = add nsw i32 %48, -1
  store i32 %51, ptr %3, align 4, !tbaa !8
  br label %lean_dec.exit26

52:                                               ; preds = %47
  %.not.i34 = icmp eq i32 %48, 0
  br i1 %.not.i34, label %lean_dec.exit26, label %53

53:                                               ; preds = %52
  tail call void @lean_dec_ref_cold(ptr noundef nonnull %3) #5
  br label %lean_dec.exit26

lean_dec.exit26:                                  ; preds = %53, %52, %50, %lean_dec.exit27
  %54 = ptrtoint ptr %2 to i64
  %55 = and i64 %54, 1
  %.not45 = icmp eq i64 %55, 0
  br i1 %.not45, label %56, label %lean_dec.exit25

56:                                               ; preds = %lean_dec.exit26
  %57 = load i32, ptr %2, align 4, !tbaa !8
  %58 = icmp sgt i32 %57, 1
  br i1 %58, label %59, label %61, !prof !11

59:                                               ; preds = %56
  %60 = add nsw i32 %57, -1
  store i32 %60, ptr %2, align 4, !tbaa !8
  br label %lean_dec.exit25

61:                                               ; preds = %56
  %.not.i36 = icmp eq i32 %57, 0
  br i1 %.not.i36, label %lean_dec.exit25, label %62

62:                                               ; preds = %61
  tail call void @lean_dec_ref_cold(ptr noundef nonnull %2) #5
  br label %lean_dec.exit25

lean_dec.exit25:                                  ; preds = %62, %61, %59, %lean_dec.exit26
  %63 = ptrtoint ptr %1 to i64
  %64 = and i64 %63, 1
  %.not46 = icmp eq i64 %64, 0
  br i1 %.not46, label %65, label %lean_dec.exit24

65:                                               ; preds = %lean_dec.exit25
  %66 = load i32, ptr %1, align 4, !tbaa !8
  %67 = icmp sgt i32 %66, 1
  br i1 %67, label %68, label %70, !prof !11

68:                                               ; preds = %65
  %69 = add nsw i32 %66, -1
  store i32 %69, ptr %1, align 4, !tbaa !8
  br label %lean_dec.exit24

70:                                               ; preds = %65
  %.not.i38 = icmp eq i32 %66, 0
  br i1 %.not.i38, label %lean_dec.exit24, label %71

71:                                               ; preds = %70
  tail call void @lean_dec_ref_cold(ptr noundef nonnull %1) #5
  br label %lean_dec.exit24

lean_dec.exit24:                                  ; preds = %71, %70, %68, %lean_dec.exit25
  %72 = ptrtoint ptr %0 to i64
  %73 = and i64 %72, 1
  %.not47 = icmp eq i64 %73, 0
  br i1 %.not47, label %74, label %lean_dec.exit

74:                                               ; preds = %lean_dec.exit24
  %75 = load i32, ptr %0, align 4, !tbaa !8
  %76 = icmp sgt i32 %75, 1
  br i1 %76, label %77, label %79, !prof !11

77:                                               ; preds = %74
  %78 = add nsw i32 %75, -1
  store i32 %78, ptr %0, align 4, !tbaa !8
  br label %lean_dec.exit

79:                                               ; preds = %74
  %.not.i40 = icmp eq i32 %75, 0
  br i1 %.not.i40, label %lean_dec.exit, label %80

80:                                               ; preds = %79
  tail call void @lean_dec_ref_cold(ptr noundef nonnull %0) #5
  br label %lean_dec.exit

lean_dec.exit:                                    ; preds = %80, %79, %77, %lean_dec.exit24
  ret ptr %17
}